; Function Attrs: nounwind uwtable
define hidden i32 @BN_mod_add_quick(ptr noundef %0, ptr noundef %1, ptr noundef %2, ptr noundef %3) local_unnamed_addr #0 {
  %5 = tail call i32 @BN_uadd(ptr noundef %0, ptr noundef %1, ptr noundef %2) #6
  %.not = icmp eq i32 %5, 0
  br i1 %.not, label %11, label %6

6:                                                ; preds = %4
  %7 = tail call i32 @BN_ucmp(ptr noundef %0, ptr noundef %3) #6
  %8 = icmp sgt i32 %7, -1
  br i1 %8, label %9, label %11

9:                                                ; preds = %6
  %10 = tail call i32 @BN_usub(ptr noundef %0, ptr noundef %0, ptr noundef %3) #6
  br label %11

11:                                               ; preds = %6, %4, %9
  %.0 = phi i32 [ %10, %9 ], [ 0, %4 ], [ 1, %6 ]
  ret i32 %.0
}